(lp1
Vhttps://\u043c\u0432\u0434.\u0440\u0444/mvd/structure1/Glavnie_upravlenija/Glavnoe_upravlenie_po_obespecheniju_bezo
p2
aVhttps://\u043c\u0432\u0434.\u0440\u0444/mvd/structure1/Glavnie_upravlenija/Glavnoe_upravlenie_po_obespecheniju_ohra
p3
aVhttps://\u043c\u0432\u0434.\u0440\u0444/mvd/structure1/Glavnie_upravlenija/Glavnoe_upravlenie_po_protivodejstviju_j
p4
aVhttps://\u043c\u0432\u0434.\u0440\u0444/mvd/structure1/Glavnie_upravlenija/%D0%B3%D1%83%D1%81%D0%B1
p5
aVhttps://\u043c\u0432\u0434.\u0440\u0444/mvd/structure1/Glavnie_upravlenija/Glavnoe_upravlenie_na_transporte
p6
aVhttps://\u043c\u0432\u0434.\u0440\u0444/mvd/structure1/Glavnie_upravlenija/Glavnoe_upravlenie_ugolovnogo_roziska
p7
aVhttps://\u043c\u0432\u0434.\u0440\u0444/mvd/structure1/Glavnie_upravlenija/Glavnoe_upravlenie_jekonomicheskoj_bezop
p8
aVhttps://\u043c\u0432\u0434.\u0440\u0444/mvd/structure1/Glavnie_upravlenija/guvm
p9
aVhttps://\u043c\u0432\u0434.\u0440\u0444/mvd/structure1/Glavnie_upravlenija/gunk
p10
aVhttps://\u043c\u0432\u0434.\u0440\u0444/mvd/structure1/Departamenti/Sledstvennij_departament
p11
aVhttps://dgsk.mvd.ru/
p12
aVhttps://\u043c\u0432\u0434.\u0440\u0444/mvd/structure1/Departamenti/Departament_deloproizvodstva_i_raboti_s
p13
aVhttps://\u043c\u0432\u0434.\u0440\u0444/mvd/structure1/Departamenti/Departament_informacionnih_tehnologij_sv
p14
aVhttps://\u043c\u0432\u0434.\u0440\u0444/mvd/structure1/Departamenti/Departament_po_materialno_tehnicheskomu
p15
aVhttps://\u043c\u0432\u0434.\u0440\u0444/mvd/structure1/Departamenti/Departament_po_finansovo_jekonomicheskoj
p16
aVhttps://\u043c\u0432\u0434.\u0440\u0444/mvd/structure1/Departamenti/Dogovorno_pravovoj_departament
p17
aVhttps://\u043c\u0432\u0434.\u0440\u0444/mvd/structure1/Departamenti/Organizacionno_analiticheskij_departamen
p18
aVhttps://\u043c\u0432\u0434.\u0440\u0444/mvd/structure1/Upravlenija/Upravlenie_K_MVD_Rossii
p19
aVhttps://\u043c\u0432\u0434.\u0440\u0444/mvd/structure1/Upravlenija/Upravlenie_po_obespecheniju_bezopasnosti
p20
aVhttps://\u043c\u0432\u0434.\u0440\u0444/mvd/structure1/Upravlenija/UOS
p21
aVhttps://\u043c\u0432\u0434.\u0440\u0444/folder/790872
p22
aVhttps://\u043c\u0432\u0434.\u0440\u0444/mvd/structure1/Upravlenija/Organizacionno_shtatnoe_upravlenie
p23
aVhttps://\u043c\u0432\u0434.\u0440\u0444/mvd/structure1/Upravlenija/Kontrolno_revizionnoe_upravlenie
p24
aVhttps://\u043c\u0432\u0434.\u0440\u0444/mvd/structure1/Upravlenija/Upravlenie_po_organizacii_doznanija
p25
aVhttps://\u043c\u0432\u0434.\u0440\u0444/mvd/structure1/Upravlenija/Operativnoe_upravlenie
p26
aVhttps://\u043c\u0432\u0434.\u0440\u0444/mvd/structure1/Upravlenija/Nacionalnoe_centralnoe_bjuro_Interpola
p27
aVhttps://\u043c\u0432\u0434.\u0440\u0444/mvd/structure1/Upravlenija/Upravlenie_po_obespecheniju_dejatelnosti
p28
aVhttps://\u043c\u0432\u0434.\u0440\u0444/mvd/structure1/Centri/Akademija_upravlenija_MVD_Rossii
p29
aVhttps://\u043c\u0432\u0434.\u0440\u0444/mvd/structure1/Centri/VIPK_MVD_Rossii
p30
aVhttps://\u043c\u0432\u0434.\u0440\u0444/mvd/structure1/Centri/Vserossijskij_nauchno_issledovatelskij_i
p31
aVhttps://\u043c\u0432\u0434.\u0440\u0444/mvd/structure1/Centri/Glavnij_informacionno_analiticheskij_cen
p32
aVhttps://\u043c\u0432\u0434.\u0440\u0444/mvd/structure1/Centri/fku_gcahito
p33
aVhttps://\u043c\u0432\u0434.\u0440\u0444/mvd/structure1/Centri/Glavnij_centr_svjazi_i_zashhiti_informac
p34
aVhttps://\u043c\u0432\u0434.\u0440\u0444/mvd/structure1/Centri/GCSP
p35
aVhttps://\u043c\u0432\u0434.\u0440\u0444/mvd/structure1/Centri/NPO_Spectehnika_i_Svjaz
p36
aVhttps://\u043c\u0432\u0434.\u0440\u0444/mvd/structure1/Centri/FKU_Obedinennaja_redakcija_MVD_Rossii
p37
aVhttps://\u043c\u0432\u0434.\u0440\u0444/mvd/structure1/Centri/FKU_Centr_kinologicheskogo_obespechenija
p38
aVhttps://\u043c\u0432\u0434.\u0440\u0444/mvd/structure1/Centri/FKU_Centr_metrologii_MVD_Rossii
p39
aVhttps://\u043c\u0432\u0434.\u0440\u0444/mvd/structure1/Centri/CSN_BDD
p40
aVhttps://\u043c\u0432\u0434.\u0440\u0444/mvd/structure1/Centri/JEkspertno_kriminalisticheskij_centr
p41
aVhttps://\u043c\u0432\u0434.\u0440\u0444/mvd/structure1/Centri/%D1%86%D0%B5%D0%BD%D1%82%D1%80-%D1%81%D0%BE%D1%86%D0%B8%D0%B0%D0%BB%D1%8C%D0%BD%D0%BE%D0%B9-%D1%80%D0%B0%D0%B1%D0%BE%D1%82%D1%8B-%D0%BC%D0%B2%D0%B4-%D1%80%D0%BE%D1%81%D1%81%D0%B8%D0%B8
p42
aVhttps://\u043c\u0432\u0434.\u0440\u0444/folder/9087685
p43
a.